target datalayout = "e-m:e-p270:32:32-p271:32:32-p272:64:64-i64:64-i128:128-f80:128-n8:16:32:64-S128"
target triple = "x86_64-pc-linux-gnu"

%struct.mbedtls_md_context_t = type { ptr, ptr, ptr }

@.str = private unnamed_addr constant [3 x i8] c"rb\00", align 1

; Function Attrs: nounwind uwtable
define hidden void @mbedtls_md_init(ptr noundef %0) #0 {
  %2 = alloca ptr, align 8
  store ptr %0, ptr %2, align 8, !tbaa !7
  %3 = load ptr, ptr %2, align 8, !tbaa !7
  call void @llvm.memset.p0.i64(ptr align 8 %3, i8 0, i64 24, i1 false)
  ret void
}

; Function Attrs: nounwind uwtable
define hidden i32 @mbedtls_md_file(ptr noundef %0, ptr noundef %1, ptr noundef %2) #0 {
  %4 = alloca i32, align 4
  %5 = alloca ptr, align 8
  %6 = alloca ptr, align 8
  %7 = alloca ptr, align 8
  %8 = alloca i32, align 4
  %9 = alloca ptr, align 8
  %10 = alloca i64, align 8
  %11 = alloca %struct.mbedtls_md_context_t, align 8
  %12 = alloca [1024 x i8], align 16
  %13 = alloca i32, align 4
  store ptr %0, ptr %5, align 8, !tbaa !18
  store ptr %1, ptr %6, align 8, !tbaa !19
  store ptr %2, ptr %7, align 8, !tbaa !19
  call void @llvm.lifetime.start.p0(i64 4, ptr %8) #9
  store i32 -110, ptr %8, align 4, !tbaa !3
  call void @llvm.lifetime.start.p0(i64 8, ptr %9) #9
  call void @llvm.lifetime.start.p0(i64 8, ptr %10) #9
  call void @llvm.lifetime.start.p0(i64 24, ptr %11) #9
  call void @llvm.lifetime.start.p0(i64 1024, ptr %12) #9
  %14 = load ptr, ptr %5, align 8, !tbaa !18
  %15 = icmp eq ptr %14, null
  br i1 %15, label %16, label %17

16:                                               ; preds = %3
  store i32 -20736, ptr %4, align 4
  store i32 1, ptr %13, align 4
  br label %59

17:                                               ; preds = %3
  %18 = load ptr, ptr %6, align 8, !tbaa !19
  %19 = call noalias ptr @fopen(ptr noundef %18, ptr noundef @.str)
  store ptr %19, ptr %9, align 8, !tbaa !31
  %20 = icmp eq ptr %19, null
  br i1 %20, label %21, label %22

21:                                               ; preds = %17
  store i32 -20992, ptr %4, align 4
  store i32 1, ptr %13, align 4
  br label %59

22:                                               ; preds = %17
  %23 = load ptr, ptr %9, align 8, !tbaa !31
  call void @setbuf(ptr noundef %23, ptr noundef null) #9
  call void @mbedtls_md_init(ptr noundef %11)
  %24 = load ptr, ptr %5, align 8, !tbaa !18
  %25 = call i32 @mbedtls_md_setup(ptr noundef %11, ptr noundef %24, i32 noundef 0)
  store i32 %25, ptr %8, align 4, !tbaa !3
  %26 = icmp ne i32 %25, 0
  br i1 %26, label %27, label %28

27:                                               ; preds = %22
  br label %54

28:                                               ; preds = %22
  %29 = call i32 @mbedtls_md_starts(ptr noundef %11)
  store i32 %29, ptr %8, align 4, !tbaa !3
  %30 = icmp ne i32 %29, 0
  br i1 %30, label %31, label %32

31:                                               ; preds = %28
  br label %54

32:                                               ; preds = %28
  br label %33

33:                                               ; preds = %44, %32
  %34 = getelementptr inbounds [1024 x i8], ptr %12, i64 0, i64 0
  %35 = load ptr, ptr %9, align 8, !tbaa !31
  %36 = call i64 @fread(ptr noundef %34, i64 noundef 1, i64 noundef 1024, ptr noundef %35)
  store i64 %36, ptr %10, align 8, !tbaa !21
  %37 = icmp ugt i64 %36, 0
  br i1 %37, label %38, label %45

38:                                               ; preds = %33
  %39 = getelementptr inbounds [1024 x i8], ptr %12, i64 0, i64 0
  %40 = load i64, ptr %10, align 8, !tbaa !21
  %41 = call i32 @mbedtls_md_update(ptr noundef %11, ptr noundef %39, i64 noundef %40)
  store i32 %41, ptr %8, align 4, !tbaa !3
  %42 = icmp ne i32 %41, 0
  br i1 %42, label %43, label %44

43:                                               ; preds = %38
  br label %54

44:                                               ; preds = %38
  br label %33, !llvm.loop !33

45:                                               ; preds = %33
  %46 = load ptr, ptr %9, align 8, !tbaa !31
  %47 = call i32 @ferror(ptr noundef %46) #9
  %48 = icmp ne i32 %47, 0
  br i1 %48, label %49, label %50

49:                                               ; preds = %45
  store i32 -20992, ptr %8, align 4, !tbaa !3
  br label %53

50:                                               ; preds = %45
  %51 = load ptr, ptr %7, align 8, !tbaa !19
  %52 = call i32 @mbedtls_md_finish(ptr noundef %11, ptr noundef %51)
  store i32 %52, ptr %8, align 4, !tbaa !3
  br label %53

53:                                               ; preds = %50, %49
  br label %54

54:                                               ; preds = %53, %43, %31, %27
  %55 = getelementptr inbounds [1024 x i8], ptr %12, i64 0, i64 0
  call void @mbedtls_platform_zeroize(ptr noundef %55, i64 noundef 1024)
  %56 = load ptr, ptr %9, align 8, !tbaa !31
  %57 = call i32 @fclose(ptr noundef %56)
  call void @mbedtls_md_free(ptr noundef %11)
  %58 = load i32, ptr %8, align 4, !tbaa !3
  store i32 %58, ptr %4, align 4
  store i32 1, ptr %13, align 4
  br label %59

59:                                               ; preds = %54, %21, %16
  call void @llvm.lifetime.end.p0(i64 1024, ptr %12) #9
  call void @llvm.lifetime.end.p0(i64 24, ptr %11) #9
  call void @llvm.lifetime.end.p0(i64 8, ptr %10) #9
  call void @llvm.lifetime.end.p0(i64 8, ptr %9) #9
  call void @llvm.lifetime.end.p0(i64 4, ptr %8) #9
  %60 = load i32, ptr %4, align 4
  ret i32 %60
}