; Function Attrs: nounwind uwtable
define hidden i32 @mbedtls_md_file(ptr noundef %0, ptr noundef readonly captures(none) %1, ptr noundef %2) local_unnamed_addr #3 {
  %4 = alloca %struct.mbedtls_md_context_t, align 8
  %5 = alloca [1024 x i8], align 16
  call void @llvm.lifetime.start.p0(i64 24, ptr nonnull %4) #14
  call void @llvm.lifetime.start.p0(i64 1024, ptr nonnull %5) #14
  %6 = icmp eq ptr %0, null
  br i1 %6, label %22, label %7

7:                                                ; preds = %3
  %8 = tail call noalias ptr @fopen(ptr noundef %1, ptr noundef nonnull @.str)
  %9 = icmp eq ptr %8, null
  br i1 %9, label %22, label %10

10:                                               ; preds = %7
  tail call void @setbuf(ptr noundef nonnull %8, ptr noundef null) #14
  call void @llvm.memset.p0.i64(ptr noundef nonnull align 8 dereferenceable(24) %4, i8 0, i64 24, i1 false)
  %11 = call i32 @mbedtls_md_setup(ptr noundef nonnull %4, ptr noundef nonnull %0, i32 noundef 0)
  %.not = icmp eq i32 %11, 0
  br i1 %.not, label %12, label %.loopexit

12:                                               ; preds = %10
  %13 = call i32 @mbedtls_md_starts(ptr noundef nonnull %4)
  %.not17 = icmp eq i32 %13, 0
  br i1 %.not17, label %.preheader, label %.loopexit

.preheader:                                       ; preds = %12, %15
  %14 = call i64 @fread(ptr noundef nonnull %5, i64 noundef 1, i64 noundef 1024, ptr noundef nonnull %8)
  %.not18 = icmp eq i64 %14, 0
  br i1 %.not18, label %17, label %15

15:                                               ; preds = %.preheader
  %16 = call i32 @mbedtls_md_update(ptr noundef nonnull %4, ptr noundef nonnull %5, i64 noundef %14)
  %.not20 = icmp eq i32 %16, 0
  br i1 %.not20, label %.preheader, label %.loopexit, !llvm.loop !23

17:                                               ; preds = %.preheader
  %18 = call i32 @ferror(ptr noundef nonnull %8) #14
  %.not19 = icmp eq i32 %18, 0
  br i1 %.not19, label %19, label %.loopexit

19:                                               ; preds = %17
  %20 = call i32 @mbedtls_md_finish(ptr noundef nonnull %4, ptr noundef %2)
  br label %.loopexit

.loopexit:                                        ; preds = %15, %17, %19, %12, %10
  %.010 = phi i32 [ %11, %10 ], [ %13, %12 ], [ %20, %19 ], [ -20992, %17 ], [ %16, %15 ]
  call void @mbedtls_platform_zeroize(ptr noundef nonnull %5, i64 noundef 1024) #14
  %21 = call i32 @fclose(ptr noundef nonnull %8)
  call void @mbedtls_md_free(ptr noundef nonnull %4)
  br label %22

22:                                               ; preds = %7, %3, %.loopexit
  %.0 = phi i32 [ %.010, %.loopexit ], [ -20736, %3 ], [ -20992, %7 ]
  call void @llvm.lifetime.end.p0(i64 1024, ptr nonnull %5) #14
  call void @llvm.lifetime.end.p0(i64 24, ptr nonnull %4) #14
  ret i32 %.0
}